; Function Attrs: mustprogress uwtable
define noundef i32 @_ZN8proxygen11HTTP1xCodec15onHeaderValueCBEPNS_11http_parserEPKcm(ptr nocapture noundef readonly %parser, ptr noundef %buf, i64 noundef %len) #3 align 2 personality ptr @__gxx_personality_v0 {
entry:
  %data = getelementptr inbounds i8, ptr %parser, i64 24
  %0 = load ptr, ptr %data, align 8
  %headerParseState_.i.i = getelementptr inbounds i8, ptr %0, i64 380
  %1 = load i8, ptr %headerParseState_.i.i, align 4
  %2 = add i8 %1, -1
  %spec.select.i.i = icmp ult i8 %2, 3
  %..i = select i1 %spec.select.i.i, i8 3, i8 6
  store i8 %..i, ptr %headerParseState_.i.i, align 4
  %currentHeaderValue_.i = getelementptr inbounds i8, ptr %0, i64 176
  %call3.i3 = invoke noundef nonnull align 8 dereferenceable(32) ptr @_ZNSt7__cxx1112basic_stringIcSt11char_traitsIcESaIcEE6appendEPKcm(ptr noundef nonnull align 8 dereferenceable(32) %currentHeaderValue_.i, ptr noundef %buf, i64 noundef %len)
          to label %return unwind label %lpad23

lpad23:                                           ; preds = %entry
  %3 = landingpad { ptr, i32 }
          catch ptr @_ZTISt9exception
  %4 = extractvalue { ptr, i32 } %3, 1
  %5 = tail call i32 @llvm.eh.typeid.for(ptr nonnull @_ZTISt9exception) #25
  %matches = icmp eq i32 %4, %5
  br i1 %matches, label %catch, label %eh.resume

catch:                                            ; preds = %lpad23
  %6 = extractvalue { ptr, i32 } %3, 0
  %7 = tail call ptr @__cxa_begin_catch(ptr %6) #25
  %vtable = load ptr, ptr %7, align 8
  %vfn = getelementptr inbounds i8, ptr %vtable, i64 16
  %8 = load ptr, ptr %vfn, align 8
  %call26 = tail call noundef ptr %8(ptr noundef nonnull align 8 dereferenceable(8) %7) #25
  invoke void @_ZN8proxygen11HTTP1xCodec13onParserErrorEPKc(ptr noundef nonnull align 8 dereferenceable(428) %0, ptr noundef %call26)
          to label %invoke.cont28 unwind label %lpad27

invoke.cont28:                                    ; preds = %catch
  tail call void @__cxa_end_catch()
  br label %return

lpad27:                                           ; preds = %catch
  %9 = landingpad { ptr, i32 }
          cleanup
  invoke void @__cxa_end_catch()
          to label %eh.resume unwind label %terminate.lpad

return:                                           ; preds = %entry, %invoke.cont28
  %retval.0 = phi i32 [ 1, %invoke.cont28 ], [ 0, %entry ]
  ret i32 %retval.0

eh.resume:                                        ; preds = %lpad27, %lpad23
  %lpad.val32.merged = phi { ptr, i32 } [ %9, %lpad27 ], [ %3, %lpad23 ]
  resume { ptr, i32 } %lpad.val32.merged

terminate.lpad:                                   ; preds = %lpad27
  %10 = landingpad { ptr, i32 }
          catch ptr null
  %11 = extractvalue { ptr, i32 } %10, 0
  tail call void @__clang_call_terminate(ptr %11) #26
  unreachable
}